(dp1
S'rangeid'
p2
I32
sS'prevwidth'
p3
I602
sS'range_interval'
p4
(dp5
I32
I01
ssS'interval'
p6
I01
sS'range'
p7
(dp8
I32
(lp9
I602
aI602
aI602
aI602
aI602
aI602
aI602
aI602
aI602
aI602
aI602
aI602
aI602
aI602
aI602
aI602
aI602
aI602
aI602
aI602
aI602
aI602
aI602
aI602
aI602
aI602
aI602
aI602
aI602
aI602
aI602
aI602
aI602
aI602
aI602
aI602
aI602
aI602
aI602
aI602
aI602
aI602
aI602
aI602
aI602
aI602
aI602
aI602
aI602
aI602
aI602
aI602
aI602
aI602
aI602
aI602
aI602
aI602
aI602
aI602
aI602
aI602
aI602
aI602
aI602
aI602
aI602
aI602
aI602
aI602
aI602
aI602
aI602
aI602
aI602
aI602
aI602
aI602
aI602
aI602
aI602
aI602
aI602
aI602
aI602
aI602
aI602
aI602
aI602
aI602
aI602
aI602
aI602
aI602
aI602
assS'prevcid'
p10
I126
s.